; Function Attrs: mustprogress uwtable
define void @_ZN2cv6repeatERKNS_3MatEii(ptr dead_on_unwind noalias writable sret(%"class.cv::Mat") align 8 %0, ptr noundef nonnull align 8 dereferenceable(96) %1, i32 noundef %2, i32 noundef %3) local_unnamed_addr #5 personality ptr @__gxx_personality_v0 {
  %5 = alloca %"class.cv::_InputArray", align 8
  %6 = alloca %"class.cv::_OutputArray", align 8
  %7 = icmp eq i32 %3, 1
  %8 = icmp eq i32 %2, 1
  %or.cond = and i1 %8, %7
  br i1 %or.cond, label %9, label %10

9:                                                ; preds = %4
  tail call void @_ZN2cv3MatC1ERKS0_(ptr noundef nonnull align 8 dereferenceable(96) %0, ptr noundef nonnull align 8 dereferenceable(96) %1)
  br label %18

10:                                               ; preds = %4
  tail call void @_ZN2cv3MatC1Ev(ptr noundef nonnull align 8 dereferenceable(96) %0) #17
  %11 = getelementptr inbounds i8, ptr %5, i64 16
  store i32 0, ptr %11, align 8
  %12 = getelementptr inbounds i8, ptr %5, i64 20
  store i32 0, ptr %12, align 4
  store i32 16842752, ptr %5, align 8
  %13 = getelementptr inbounds i8, ptr %5, i64 8
  store ptr %1, ptr %13, align 8
  %14 = getelementptr inbounds i8, ptr %6, i64 8
  %15 = getelementptr inbounds i8, ptr %6, i64 16
  store i64 0, ptr %15, align 8
  store i32 33619968, ptr %6, align 8
  store ptr %0, ptr %14, align 8
  invoke void @_ZN2cv6repeatERKNS_11_InputArrayEiiRKNS_12_OutputArrayE(ptr noundef nonnull align 8 dereferenceable(24) %5, i32 noundef %2, i32 noundef %3, ptr noundef nonnull align 8 dereferenceable(24) %6)
          to label %18 unwind label %16

16:                                               ; preds = %10
  %17 = landingpad { ptr, i32 }
          cleanup
  call void @_ZN2cv3MatD1Ev(ptr noundef nonnull align 8 dereferenceable(96) %0) #17
  resume { ptr, i32 } %17

18:                                               ; preds = %10, %9
  ret void
}